target datalayout = "e-m:e-p270:32:32-p271:32:32-p272:64:64-i64:64-i128:128-f80:128-n8:16:32:64-S128"
target triple = "x86_64-pc-linux-gnu"

%struct.DhKey = type { %struct.sp_int, %struct.sp_int, %struct.sp_int, ptr, i32 }
%struct.sp_int = type { i16, i16, [129 x i64] }

; Function Attrs: nounwind uwtable
define internal i32 @wc_DhAgree_Sync(ptr noundef %0, ptr noundef %1, ptr noundef %2, ptr noundef %3, i32 noundef %4, ptr noundef %5, i32 noundef %6, i32 noundef %7) #0 {
  %9 = alloca i32, align 4
  %10 = alloca ptr, align 8
  %11 = alloca ptr, align 8
  %12 = alloca ptr, align 8
  %13 = alloca ptr, align 8
  %14 = alloca i32, align 4
  %15 = alloca ptr, align 8
  %16 = alloca i32, align 4
  %17 = alloca i32, align 4
  %18 = alloca i32, align 4
  %19 = alloca [1 x %struct.sp_int], align 16
  %20 = alloca [1 x %struct.sp_int], align 16
  %21 = alloca [1 x %struct.sp_int], align 16
  %22 = alloca i32, align 4
  store ptr %0, ptr %10, align 8, !tbaa !3
  store ptr %1, ptr %11, align 8, !tbaa !16
  store ptr %2, ptr %12, align 8, !tbaa !29
  store ptr %3, ptr %13, align 8, !tbaa !16
  store i32 %4, ptr %14, align 4, !tbaa !9
  store ptr %5, ptr %15, align 8, !tbaa !16
  store i32 %6, ptr %16, align 4, !tbaa !9
  store i32 %7, ptr %17, align 4, !tbaa !9
  call void @llvm.lifetime.start.p0(i64 4, ptr %18) #9
  store i32 0, ptr %18, align 4, !tbaa !9
  call void @llvm.lifetime.start.p0(i64 1040, ptr %19) #9
  call void @llvm.lifetime.start.p0(i64 1040, ptr %20) #9
  call void @llvm.lifetime.start.p0(i64 1040, ptr %21) #9
  %23 = load ptr, ptr %10, align 8, !tbaa !3
  %24 = getelementptr inbounds nuw %struct.DhKey, ptr %23, i32 0, i32 0
  %25 = getelementptr inbounds nuw %struct.sp_int, ptr %24, i32 0, i32 0
  %26 = load i16, ptr %25, align 8, !tbaa !24
  %27 = zext i16 %26 to i32
  %28 = icmp ne i32 %27, 0
  br i1 %28, label %29, label %37

29:                                               ; preds = %8
  %30 = load ptr, ptr %10, align 8, !tbaa !3
  %31 = getelementptr inbounds nuw %struct.DhKey, ptr %30, i32 0, i32 0
  %32 = getelementptr inbounds nuw %struct.sp_int, ptr %31, i32 0, i32 2
  %33 = getelementptr inbounds [129 x i64], ptr %32, i64 0, i64 0
  %34 = load i64, ptr %33, align 8, !tbaa !25
  %35 = and i64 %34, 1
  %36 = icmp eq i64 %35, 0
  br label %37

37:                                               ; preds = %29, %8
  %38 = phi i1 [ false, %8 ], [ %36, %29 ]
  %39 = zext i1 %38 to i32
  %40 = icmp eq i32 %39, 1
  br i1 %40, label %41, label %42

41:                                               ; preds = %37
  store i32 -98, ptr %9, align 4
  store i32 1, ptr %22, align 4
  br label %144

42:                                               ; preds = %37
  %43 = load i32, ptr %17, align 4, !tbaa !9
  %44 = icmp ne i32 %43, 0
  br i1 %44, label %45, label %47

45:                                               ; preds = %42
  %46 = getelementptr inbounds [1 x %struct.sp_int], ptr %20, i64 0, i64 0
  call void @llvm.memset.p0.i64(ptr align 16 %46, i8 0, i64 1040, i1 false)
  br label %47

47:                                               ; preds = %45, %42
  %48 = getelementptr inbounds [1 x %struct.sp_int], ptr %20, i64 0, i64 0
  %49 = getelementptr inbounds [1 x %struct.sp_int], ptr %19, i64 0, i64 0
  %50 = getelementptr inbounds [1 x %struct.sp_int], ptr %21, i64 0, i64 0
  %51 = call i32 @sp_init_multi(ptr noundef %48, ptr noundef %49, ptr noundef %50, ptr noundef null, ptr noundef null, ptr noundef null)
  %52 = icmp ne i32 %51, 0
  br i1 %52, label %53, label %54

53:                                               ; preds = %47
  store i32 -110, ptr %9, align 4
  store i32 1, ptr %22, align 4
  br label %144

54:                                               ; preds = %47
  br label %55

55:                                               ; preds = %54
  br label %56

56:                                               ; preds = %55
  br label %57

57:                                               ; preds = %56
  %58 = getelementptr inbounds [1 x %struct.sp_int], ptr %20, i64 0, i64 0
  %59 = load ptr, ptr %13, align 8, !tbaa !16
  %60 = load i32, ptr %14, align 4, !tbaa !9
  %61 = call i32 @sp_read_unsigned_bin(ptr noundef %58, ptr noundef %59, i32 noundef %60)
  %62 = icmp ne i32 %61, 0
  br i1 %62, label %63, label %64

63:                                               ; preds = %57
  store i32 -111, ptr %18, align 4, !tbaa !9
  br label %64

64:                                               ; preds = %63, %57
  %65 = load i32, ptr %18, align 4, !tbaa !9
  %66 = icmp eq i32 %65, 0
  br i1 %66, label %67, label %74

67:                                               ; preds = %64
  %68 = getelementptr inbounds [1 x %struct.sp_int], ptr %19, i64 0, i64 0
  %69 = load ptr, ptr %15, align 8, !tbaa !16
  %70 = load i32, ptr %16, align 4, !tbaa !9
  %71 = call i32 @sp_read_unsigned_bin(ptr noundef %68, ptr noundef %69, i32 noundef %70)
  %72 = icmp ne i32 %71, 0
  br i1 %72, label %73, label %74

73:                                               ; preds = %67
  store i32 -111, ptr %18, align 4, !tbaa !9
  br label %74

74:                                               ; preds = %73, %67, %64
  %75 = load i32, ptr %18, align 4, !tbaa !9
  %76 = icmp eq i32 %75, 0
  br i1 %76, label %77, label %104

77:                                               ; preds = %74
  %78 = load i32, ptr %17, align 4, !tbaa !9
  %79 = icmp ne i32 %78, 0
  br i1 %79, label %80, label %92

80:                                               ; preds = %77
  %81 = getelementptr inbounds [1 x %struct.sp_int], ptr %19, i64 0, i64 0
  %82 = getelementptr inbounds [1 x %struct.sp_int], ptr %20, i64 0, i64 0
  %83 = load ptr, ptr %12, align 8, !tbaa !29
  %84 = load i32, ptr %83, align 4, !tbaa !9
  %85 = add nsw i32 %84, 64
  %86 = sub nsw i32 %85, 1
  %87 = sdiv i32 %86, 64
  %88 = load ptr, ptr %10, align 8, !tbaa !3
  %89 = getelementptr inbounds nuw %struct.DhKey, ptr %88, i32 0, i32 0
  %90 = getelementptr inbounds [1 x %struct.sp_int], ptr %21, i64 0, i64 0
  %91 = call i32 @sp_exptmod_ex(ptr noundef %81, ptr noundef %82, i32 noundef %87, ptr noundef %89, ptr noundef %90)
  store i32 %91, ptr %18, align 4, !tbaa !9
  br label %99

92:                                               ; preds = %77
  %93 = getelementptr inbounds [1 x %struct.sp_int], ptr %19, i64 0, i64 0
  %94 = getelementptr inbounds [1 x %struct.sp_int], ptr %20, i64 0, i64 0
  %95 = load ptr, ptr %10, align 8, !tbaa !3
  %96 = getelementptr inbounds nuw %struct.DhKey, ptr %95, i32 0, i32 0
  %97 = getelementptr inbounds [1 x %struct.sp_int], ptr %21, i64 0, i64 0
  %98 = call i32 @sp_exptmod(ptr noundef %93, ptr noundef %94, ptr noundef %96, ptr noundef %97)
  store i32 %98, ptr %18, align 4, !tbaa !9
  br label %99

99:                                               ; preds = %92, %80
  %100 = load i32, ptr %18, align 4, !tbaa !9
  %101 = icmp ne i32 %100, 0
  br i1 %101, label %102, label %103

102:                                              ; preds = %99
  store i32 -112, ptr %18, align 4, !tbaa !9
  br label %103

103:                                              ; preds = %102, %99
  br label %104

104:                                              ; preds = %103, %74
  %105 = load i32, ptr %18, align 4, !tbaa !9
  %106 = icmp eq i32 %105, 0
  br i1 %106, label %107, label %112

107:                                              ; preds = %104
  %108 = getelementptr inbounds [1 x %struct.sp_int], ptr %21, i64 0, i64 0
  %109 = call i32 @sp_cmp_d(ptr noundef %108, i64 noundef 1)
  %110 = icmp eq i32 %109, 0
  br i1 %110, label %111, label %112

111:                                              ; preds = %107
  store i32 -98, ptr %18, align 4, !tbaa !9
  br label %112

112:                                              ; preds = %111, %107, %104
  %113 = load i32, ptr %18, align 4, !tbaa !9
  %114 = icmp eq i32 %113, 0
  br i1 %114, label %115, label %136

115:                                              ; preds = %112
  %116 = load i32, ptr %17, align 4, !tbaa !9
  %117 = icmp ne i32 %116, 0
  br i1 %117, label %118, label %124

118:                                              ; preds = %115
  %119 = getelementptr inbounds [1 x %struct.sp_int], ptr %21, i64 0, i64 0
  %120 = load ptr, ptr %11, align 8, !tbaa !16
  %121 = load ptr, ptr %12, align 8, !tbaa !29
  %122 = load i32, ptr %121, align 4, !tbaa !9
  %123 = call i32 @sp_to_unsigned_bin_len_ct(ptr noundef %119, ptr noundef %120, i32 noundef %122)
  store i32 %123, ptr %18, align 4, !tbaa !9
  br label %135

124:                                              ; preds = %115
  %125 = getelementptr inbounds [1 x %struct.sp_int], ptr %21, i64 0, i64 0
  %126 = load ptr, ptr %11, align 8, !tbaa !16
  %127 = call i32 @sp_to_unsigned_bin(ptr noundef %125, ptr noundef %126)
  store i32 %127, ptr %18, align 4, !tbaa !9
  %128 = load i32, ptr %18, align 4, !tbaa !9
  %129 = icmp eq i32 %128, 0
  br i1 %129, label %130, label %134

130:                                              ; preds = %124
  %131 = getelementptr inbounds [1 x %struct.sp_int], ptr %21, i64 0, i64 0
  %132 = call i32 @sp_unsigned_bin_size(ptr noundef %131)
  %133 = load ptr, ptr %12, align 8, !tbaa !29
  store i32 %132, ptr %133, align 4, !tbaa !9
  br label %134

134:                                              ; preds = %130, %124
  br label %135

135:                                              ; preds = %134, %118
  br label %136

136:                                              ; preds = %135, %112
  %137 = getelementptr inbounds [1 x %struct.sp_int], ptr %21, i64 0, i64 0
  call void @sp_forcezero(ptr noundef %137)
  %138 = getelementptr inbounds [1 x %struct.sp_int], ptr %19, i64 0, i64 0
  call void @sp_clear(ptr noundef %138)
  %139 = getelementptr inbounds [1 x %struct.sp_int], ptr %20, i64 0, i64 0
  call void @sp_forcezero(ptr noundef %139)
  br label %140

140:                                              ; preds = %136
  br label %141

141:                                              ; preds = %140
  br label %142

142:                                              ; preds = %141
  %143 = load i32, ptr %18, align 4, !tbaa !9
  store i32 %143, ptr %9, align 4
  store i32 1, ptr %22, align 4
  br label %144

144:                                              ; preds = %142, %53, %41
  call void @llvm.lifetime.end.p0(i64 1040, ptr %21) #9
  call void @llvm.lifetime.end.p0(i64 1040, ptr %20) #9
  call void @llvm.lifetime.end.p0(i64 1040, ptr %19) #9
  call void @llvm.lifetime.end.p0(i64 4, ptr %18) #9
  %145 = load i32, ptr %9, align 4
  ret i32 %145
}