; Function Attrs: nounwind uwtable
define internal fastcc i32 @wc_DhAgree_Sync(ptr noundef nonnull %0, ptr noundef nonnull %1, ptr noundef nonnull captures(none) %2, ptr noundef nonnull %3, i32 noundef %4, ptr noundef %5, i32 noundef %6, i32 noundef range(i32 0, 2) %7) unnamed_addr #1 {
  %9 = alloca [1 x %struct.sp_int], align 16
  %10 = alloca [1 x %struct.sp_int], align 16
  %11 = alloca [1 x %struct.sp_int], align 16
  call void @llvm.lifetime.start.p0(i64 1040, ptr nonnull %9) #14
  call void @llvm.lifetime.start.p0(i64 1040, ptr nonnull %10) #14
  call void @llvm.lifetime.start.p0(i64 1040, ptr nonnull %11) #14
  %12 = load i16, ptr %0, align 8, !tbaa !18
  %.not = icmp eq i16 %12, 0
  br i1 %.not, label %.critedge, label %13

13:                                               ; preds = %8
  %14 = getelementptr inbounds nuw i8, ptr %0, i64 8
  %15 = load i64, ptr %14, align 8, !tbaa !19
  %16 = and i64 %15, 1
  %17 = icmp eq i64 %16, 0
  br i1 %17, label %45, label %.critedge

.critedge:                                        ; preds = %8, %13
  %.not26 = icmp eq i32 %7, 0
  br i1 %.not26, label %19, label %18

18:                                               ; preds = %.critedge
  call void @llvm.memset.p0.i64(ptr noundef nonnull align 16 dereferenceable(1040) %10, i8 0, i64 1040, i1 false)
  br label %19

19:                                               ; preds = %18, %.critedge
  %20 = call i32 @sp_init_multi(ptr noundef nonnull %10, ptr noundef nonnull %9, ptr noundef nonnull %11, ptr noundef null, ptr noundef null, ptr noundef null) #14
  %.not27 = icmp eq i32 %20, 0
  br i1 %.not27, label %21, label %45

21:                                               ; preds = %19
  %22 = call i32 @sp_read_unsigned_bin(ptr noundef nonnull %10, ptr noundef nonnull %3, i32 noundef %4) #14
  %.not28 = icmp eq i32 %22, 0
  br i1 %.not28, label %23, label %.thread43

23:                                               ; preds = %21
  %24 = call i32 @sp_read_unsigned_bin(ptr noundef nonnull %9, ptr noundef %5, i32 noundef %6) #14
  %.not29 = icmp eq i32 %24, 0
  br i1 %.not29, label %.thread, label %.thread43

.thread:                                          ; preds = %23
  br i1 %.not26, label %30, label %25

25:                                               ; preds = %.thread
  %26 = load i32, ptr %2, align 4, !tbaa !21
  %27 = add nsw i32 %26, 63
  %28 = sdiv i32 %27, 64
  %29 = call i32 @sp_exptmod_ex(ptr noundef nonnull %9, ptr noundef nonnull %10, i32 noundef %28, ptr noundef nonnull %0, ptr noundef nonnull %11) #14
  br label %32

30:                                               ; preds = %.thread
  %31 = call i32 @sp_exptmod(ptr noundef nonnull %9, ptr noundef nonnull %10, ptr noundef nonnull %0, ptr noundef nonnull %11) #14
  br label %32

32:                                               ; preds = %30, %25
  %.3 = phi i32 [ %29, %25 ], [ %31, %30 ]
  %.not30 = icmp eq i32 %.3, 0
  br i1 %.not30, label %33, label %.thread43

33:                                               ; preds = %32
  %34 = call i32 @sp_cmp_d(ptr noundef nonnull %11, i64 noundef 1) #14
  %35 = icmp eq i32 %34, 0
  br i1 %35, label %.thread43, label %36

36:                                               ; preds = %33
  br i1 %.not26, label %40, label %37

37:                                               ; preds = %36
  %38 = load i32, ptr %2, align 4, !tbaa !21
  %39 = call i32 @sp_to_unsigned_bin_len_ct(ptr noundef nonnull %11, ptr noundef nonnull %1, i32 noundef %38) #14
  br label %.thread43

40:                                               ; preds = %36
  %41 = call i32 @sp_to_unsigned_bin(ptr noundef nonnull %11, ptr noundef nonnull %1) #14
  %42 = icmp eq i32 %41, 0
  br i1 %42, label %43, label %.thread43

43:                                               ; preds = %40
  %44 = call i32 @sp_unsigned_bin_size(ptr noundef nonnull %11) #14
  store i32 %44, ptr %2, align 4, !tbaa !21
  br label %.thread43

.thread43:                                        ; preds = %21, %33, %23, %32, %37, %43, %40
  %.5 = phi i32 [ %39, %37 ], [ 0, %43 ], [ %41, %40 ], [ -112, %32 ], [ -111, %23 ], [ -98, %33 ], [ -111, %21 ]
  call void @sp_forcezero(ptr noundef nonnull %11) #14
  call void @sp_clear(ptr noundef nonnull %9) #14
  call void @sp_forcezero(ptr noundef nonnull %10) #14
  br label %45

45:                                               ; preds = %19, %13, %.thread43
  %.023 = phi i32 [ %.5, %.thread43 ], [ -98, %13 ], [ -110, %19 ]
  call void @llvm.lifetime.end.p0(i64 1040, ptr nonnull %11) #14
  call void @llvm.lifetime.end.p0(i64 1040, ptr nonnull %10) #14
  call void @llvm.lifetime.end.p0(i64 1040, ptr nonnull %9) #14
  ret i32 %.023
}